target datalayout = "e-m:e-p270:32:32-p271:32:32-p272:64:64-i64:64-i128:128-f80:128-n8:16:32:64-S128"
target triple = "x86_64-pc-linux-gnu"

%struct._Node = type { %union.anon.35 }
%union.anon.35 = type { %struct.BagNode }
%struct.BagNode = type { i32, i32, ptr, ptr, i32, %union.anon.37, i32, i32, i32, i32, i32 }
%union.anon.37 = type { %struct.anon.40 }
%struct.anon.40 = type { ptr, ptr }
%struct.anon.36 = type { i32, i32, ptr, ptr }
%struct.ConsAltNode = type { i32, i32, ptr, ptr, ptr }

; Function Attrs: nounwind uwtable
define internal i32 @check_called_node_in_look_behind(ptr noundef %0, i32 noundef %1) #0 {
  %3 = alloca i32, align 4
  %4 = alloca ptr, align 8
  %5 = alloca i32, align 4
  %6 = alloca i32, align 4
  %7 = alloca ptr, align 8
  %8 = alloca i32, align 4
  store ptr %0, ptr %4, align 8, !tbaa !47
  store i32 %1, ptr %5, align 4, !tbaa !4
  call void @llvm.lifetime.start.p0(i64 4, ptr %6) #9
  store i32 0, ptr %6, align 4, !tbaa !4
  %9 = load ptr, ptr %4, align 8, !tbaa !47
  %10 = getelementptr inbounds nuw %struct._Node, ptr %9, i32 0, i32 0
  %11 = getelementptr inbounds nuw %struct.anon.36, ptr %10, i32 0, i32 0
  %12 = load i32, ptr %11, align 8, !tbaa !32
  switch i32 %12, label %148 [
    i32 7, label %13
    i32 8, label %13
    i32 4, label %33
    i32 5, label %40
    i32 6, label %123
    i32 10, label %137
  ]

13:                                               ; preds = %2, %2
  br label %14

14:                                               ; preds = %30, %13
  %15 = load ptr, ptr %4, align 8, !tbaa !47
  %16 = getelementptr inbounds nuw %struct._Node, ptr %15, i32 0, i32 0
  %17 = getelementptr inbounds nuw %struct.ConsAltNode, ptr %16, i32 0, i32 3
  %18 = load ptr, ptr %17, align 8, !tbaa !32
  %19 = load i32, ptr %5, align 4, !tbaa !4
  %20 = call i32 @check_called_node_in_look_behind(ptr noundef %18, i32 noundef %19)
  store i32 %20, ptr %6, align 4, !tbaa !4
  br label %21

21:                                               ; preds = %14
  %22 = load i32, ptr %6, align 4, !tbaa !4
  %23 = icmp eq i32 %22, 0
  br i1 %23, label %24, label %30

24:                                               ; preds = %21
  %25 = load ptr, ptr %4, align 8, !tbaa !47
  %26 = getelementptr inbounds nuw %struct._Node, ptr %25, i32 0, i32 0
  %27 = getelementptr inbounds nuw %struct.ConsAltNode, ptr %26, i32 0, i32 4
  %28 = load ptr, ptr %27, align 8, !tbaa !32
  store ptr %28, ptr %4, align 8, !tbaa !47
  %29 = icmp ne ptr %28, null
  br label %30

30:                                               ; preds = %24, %21
  %31 = phi i1 [ false, %21 ], [ %29, %24 ]
  br i1 %31, label %14, label %32, !llvm.loop !262

32:                                               ; preds = %30
  br label %149

33:                                               ; preds = %2
  %34 = load ptr, ptr %4, align 8, !tbaa !47
  %35 = getelementptr inbounds nuw %struct._Node, ptr %34, i32 0, i32 0
  %36 = getelementptr inbounds nuw %struct.anon.36, ptr %35, i32 0, i32 3
  %37 = load ptr, ptr %36, align 8, !tbaa !32
  %38 = load i32, ptr %5, align 4, !tbaa !4
  %39 = call i32 @check_called_node_in_look_behind(ptr noundef %37, i32 noundef %38)
  store i32 %39, ptr %6, align 4, !tbaa !4
  br label %149

40:                                               ; preds = %2
  call void @llvm.lifetime.start.p0(i64 8, ptr %7) #9
  %41 = load ptr, ptr %4, align 8, !tbaa !47
  %42 = getelementptr inbounds nuw %struct._Node, ptr %41, i32 0, i32 0
  store ptr %42, ptr %7, align 8, !tbaa !15
  %43 = load ptr, ptr %7, align 8, !tbaa !15
  %44 = getelementptr inbounds nuw %struct.BagNode, ptr %43, i32 0, i32 4
  %45 = load i32, ptr %44, align 8, !tbaa !156
  %46 = icmp eq i32 %45, 0
  br i1 %46, label %47, label %73

47:                                               ; preds = %40
  %48 = load ptr, ptr %4, align 8, !tbaa !47
  %49 = getelementptr inbounds nuw %struct._Node, ptr %48, i32 0, i32 0
  %50 = getelementptr inbounds nuw %struct.anon.36, ptr %49, i32 0, i32 1
  %51 = load i32, ptr %50, align 4, !tbaa !32
  %52 = and i32 %51, 8
  %53 = icmp ne i32 %52, 0
  br i1 %53, label %54, label %55

54:                                               ; preds = %47
  store i32 0, ptr %3, align 4
  store i32 1, ptr %8, align 4
  br label %120

55:                                               ; preds = %47
  %56 = load ptr, ptr %4, align 8, !tbaa !47
  %57 = getelementptr inbounds nuw %struct._Node, ptr %56, i32 0, i32 0
  %58 = getelementptr inbounds nuw %struct.anon.36, ptr %57, i32 0, i32 1
  %59 = load i32, ptr %58, align 4, !tbaa !32
  %60 = or i32 %59, 8
  store i32 %60, ptr %58, align 4, !tbaa !32
  %61 = load ptr, ptr %4, align 8, !tbaa !47
  %62 = getelementptr inbounds nuw %struct._Node, ptr %61, i32 0, i32 0
  %63 = getelementptr inbounds nuw %struct.anon.36, ptr %62, i32 0, i32 3
  %64 = load ptr, ptr %63, align 8, !tbaa !32
  %65 = load i32, ptr %5, align 4, !tbaa !4
  %66 = call i32 @check_called_node_in_look_behind(ptr noundef %64, i32 noundef %65)
  store i32 %66, ptr %6, align 4, !tbaa !4
  %67 = load ptr, ptr %4, align 8, !tbaa !47
  %68 = getelementptr inbounds nuw %struct._Node, ptr %67, i32 0, i32 0
  %69 = getelementptr inbounds nuw %struct.anon.36, ptr %68, i32 0, i32 1
  %70 = load i32, ptr %69, align 4, !tbaa !32
  %71 = and i32 %70, -9
  store i32 %71, ptr %69, align 4, !tbaa !32
  br label %72

72:                                               ; preds = %55
  br label %119

73:                                               ; preds = %40
  %74 = load ptr, ptr %4, align 8, !tbaa !47
  %75 = getelementptr inbounds nuw %struct._Node, ptr %74, i32 0, i32 0
  %76 = getelementptr inbounds nuw %struct.anon.36, ptr %75, i32 0, i32 3
  %77 = load ptr, ptr %76, align 8, !tbaa !32
  %78 = load i32, ptr %5, align 4, !tbaa !4
  %79 = call i32 @check_called_node_in_look_behind(ptr noundef %77, i32 noundef %78)
  store i32 %79, ptr %6, align 4, !tbaa !4
  %80 = load i32, ptr %6, align 4, !tbaa !4
  %81 = icmp eq i32 %80, 0
  br i1 %81, label %82, label %118

82:                                               ; preds = %73
  %83 = load ptr, ptr %7, align 8, !tbaa !15
  %84 = getelementptr inbounds nuw %struct.BagNode, ptr %83, i32 0, i32 4
  %85 = load i32, ptr %84, align 8, !tbaa !156
  %86 = icmp eq i32 %85, 3
  br i1 %86, label %87, label %118

87:                                               ; preds = %82
  %88 = load ptr, ptr %7, align 8, !tbaa !15
  %89 = getelementptr inbounds nuw %struct.BagNode, ptr %88, i32 0, i32 5
  %90 = getelementptr inbounds nuw %struct.anon.40, ptr %89, i32 0, i32 0
  %91 = load ptr, ptr %90, align 8, !tbaa !32
  %92 = icmp ne ptr %91, null
  br i1 %92, label %93, label %104

93:                                               ; preds = %87
  %94 = load ptr, ptr %7, align 8, !tbaa !15
  %95 = getelementptr inbounds nuw %struct.BagNode, ptr %94, i32 0, i32 5
  %96 = getelementptr inbounds nuw %struct.anon.40, ptr %95, i32 0, i32 0
  %97 = load ptr, ptr %96, align 8, !tbaa !32
  %98 = load i32, ptr %5, align 4, !tbaa !4
  %99 = call i32 @check_called_node_in_look_behind(ptr noundef %97, i32 noundef %98)
  store i32 %99, ptr %6, align 4, !tbaa !4
  %100 = load i32, ptr %6, align 4, !tbaa !4
  %101 = icmp ne i32 %100, 0
  br i1 %101, label %102, label %103

102:                                              ; preds = %93
  store i32 2, ptr %8, align 4
  br label %120

103:                                              ; preds = %93
  br label %104

104:                                              ; preds = %103, %87
  %105 = load ptr, ptr %7, align 8, !tbaa !15
  %106 = getelementptr inbounds nuw %struct.BagNode, ptr %105, i32 0, i32 5
  %107 = getelementptr inbounds nuw %struct.anon.40, ptr %106, i32 0, i32 1
  %108 = load ptr, ptr %107, align 8, !tbaa !32
  %109 = icmp ne ptr %108, null
  br i1 %109, label %110, label %117

110:                                              ; preds = %104
  %111 = load ptr, ptr %7, align 8, !tbaa !15
  %112 = getelementptr inbounds nuw %struct.BagNode, ptr %111, i32 0, i32 5
  %113 = getelementptr inbounds nuw %struct.anon.40, ptr %112, i32 0, i32 1
  %114 = load ptr, ptr %113, align 8, !tbaa !32
  %115 = load i32, ptr %5, align 4, !tbaa !4
  %116 = call i32 @check_called_node_in_look_behind(ptr noundef %114, i32 noundef %115)
  store i32 %116, ptr %6, align 4, !tbaa !4
  br label %117

117:                                              ; preds = %110, %104
  br label %118

118:                                              ; preds = %117, %82, %73
  br label %119

119:                                              ; preds = %118, %72
  store i32 0, ptr %8, align 4
  br label %120

120:                                              ; preds = %119, %102, %54
  call void @llvm.lifetime.end.p0(i64 8, ptr %7) #9
  %121 = load i32, ptr %8, align 4
  switch i32 %121, label %151 [
    i32 0, label %122
    i32 2, label %149
  ]

122:                                              ; preds = %120
  br label %149

123:                                              ; preds = %2
  %124 = load ptr, ptr %4, align 8, !tbaa !47
  %125 = getelementptr inbounds nuw %struct._Node, ptr %124, i32 0, i32 0
  %126 = getelementptr inbounds nuw %struct.anon.36, ptr %125, i32 0, i32 3
  %127 = load ptr, ptr %126, align 8, !tbaa !32
  %128 = icmp ne ptr %127, null
  br i1 %128, label %129, label %136

129:                                              ; preds = %123
  %130 = load ptr, ptr %4, align 8, !tbaa !47
  %131 = getelementptr inbounds nuw %struct._Node, ptr %130, i32 0, i32 0
  %132 = getelementptr inbounds nuw %struct.anon.36, ptr %131, i32 0, i32 3
  %133 = load ptr, ptr %132, align 8, !tbaa !32
  %134 = load i32, ptr %5, align 4, !tbaa !4
  %135 = call i32 @check_called_node_in_look_behind(ptr noundef %133, i32 noundef %134)
  store i32 %135, ptr %6, align 4, !tbaa !4
  br label %136

136:                                              ; preds = %129, %123
  br label %149

137:                                              ; preds = %2
  %138 = load ptr, ptr %4, align 8, !tbaa !47
  %139 = getelementptr inbounds nuw %struct._Node, ptr %138, i32 0, i32 0
  %140 = getelementptr inbounds nuw %struct.anon.36, ptr %139, i32 0, i32 1
  %141 = load i32, ptr %140, align 4, !tbaa !32
  %142 = and i32 %141, 16777216
  %143 = icmp ne i32 %142, 0
  %144 = zext i1 %143 to i32
  %145 = icmp ne i32 %144, 0
  br i1 %145, label %146, label %147

146:                                              ; preds = %137
  store i32 1, ptr %3, align 4
  store i32 1, ptr %8, align 4
  br label %151

147:                                              ; preds = %137
  br label %149

148:                                              ; preds = %2
  br label %149

149:                                              ; preds = %148, %147, %136, %122, %120, %33, %32
  %150 = load i32, ptr %6, align 4, !tbaa !4
  store i32 %150, ptr %3, align 4
  store i32 1, ptr %8, align 4
  br label %151

151:                                              ; preds = %149, %146, %120
  call void @llvm.lifetime.end.p0(i64 4, ptr %6) #9
  %152 = load i32, ptr %3, align 4
  ret i32 %152
}