; Function Attrs: nofree nosync nounwind memory(readwrite, inaccessiblemem: none) uwtable
define internal fastcc range(i32 0, 2) i32 @check_called_node_in_look_behind(ptr noundef captures(none) %0) unnamed_addr #15 {
  br label %tailrecurse

tailrecurse:                                      ; preds = %tailrecurse.backedge, %1
  %.tr = phi ptr [ %0, %1 ], [ %.tr.be, %tailrecurse.backedge ]
  %2 = load i32, ptr %.tr, align 8, !tbaa !20
  switch i32 %2, label %common.ret14 [
    i32 7, label %.preheader
    i32 8, label %.preheader
    i32 4, label %11
    i32 5, label %14
    i32 6, label %45
    i32 10, label %48
  ]

.preheader:                                       ; preds = %tailrecurse, %tailrecurse
  br label %3

3:                                                ; preds = %.preheader, %8
  %.034 = phi ptr [ %10, %8 ], [ %.tr, %.preheader ]
  %4 = getelementptr inbounds nuw i8, ptr %.034, i64 16
  %5 = load ptr, ptr %4, align 8, !tbaa !20
  %6 = tail call fastcc i32 @check_called_node_in_look_behind(ptr noundef %5)
  %7 = icmp eq i32 %6, 0
  br i1 %7, label %8, label %common.ret14

8:                                                ; preds = %3
  %9 = getelementptr inbounds nuw i8, ptr %.034, i64 24
  %10 = load ptr, ptr %9, align 8, !tbaa !20
  %.not50 = icmp eq ptr %10, null
  br i1 %.not50, label %common.ret14, label %3, !llvm.loop !277

11:                                               ; preds = %tailrecurse
  %12 = getelementptr inbounds nuw i8, ptr %.tr, i64 16
  %13 = load ptr, ptr %12, align 8, !tbaa !20
  br label %tailrecurse.backedge

tailrecurse.backedge:                             ; preds = %11, %42, %45
  %.tr.be = phi ptr [ %13, %11 ], [ %44, %42 ], [ %47, %45 ]
  br label %tailrecurse

14:                                               ; preds = %tailrecurse
  %15 = getelementptr inbounds nuw i8, ptr %.tr, i64 24
  %16 = load i32, ptr %15, align 8, !tbaa !98
  %17 = icmp eq i32 %16, 0
  br i1 %17, label %18, label %29

18:                                               ; preds = %14
  %19 = getelementptr inbounds nuw i8, ptr %.tr, i64 4
  %20 = load i32, ptr %19, align 4, !tbaa !20
  %21 = and i32 %20, 8
  %.not49 = icmp eq i32 %21, 0
  br i1 %.not49, label %22, label %common.ret14

common.ret14:                                     ; preds = %48, %18, %8, %3, %42, %34, %29, %40, %45, %tailrecurse, %22
  %common.ret14.op = phi i32 [ %26, %22 ], [ 0, %18 ], [ %.lobit, %48 ], [ 1, %3 ], [ 0, %8 ], [ 1, %40 ], [ 0, %42 ], [ 0, %34 ], [ 1, %29 ], [ 0, %45 ], [ 0, %tailrecurse ]
  ret i32 %common.ret14.op

22:                                               ; preds = %18
  %23 = or disjoint i32 %20, 8
  store i32 %23, ptr %19, align 4, !tbaa !20
  %24 = getelementptr inbounds nuw i8, ptr %.tr, i64 16
  %25 = load ptr, ptr %24, align 8, !tbaa !20
  %26 = tail call fastcc i32 @check_called_node_in_look_behind(ptr noundef %25)
  %27 = load i32, ptr %19, align 4, !tbaa !20
  %28 = and i32 %27, -9
  store i32 %28, ptr %19, align 4, !tbaa !20
  br label %common.ret14

29:                                               ; preds = %14
  %30 = getelementptr inbounds nuw i8, ptr %.tr, i64 16
  %31 = load ptr, ptr %30, align 8, !tbaa !20
  %32 = tail call fastcc i32 @check_called_node_in_look_behind(ptr noundef %31)
  %33 = icmp eq i32 %32, 0
  br i1 %33, label %34, label %common.ret14

34:                                               ; preds = %29
  %35 = load i32, ptr %15, align 8, !tbaa !98
  %36 = icmp eq i32 %35, 3
  br i1 %36, label %37, label %common.ret14

37:                                               ; preds = %34
  %38 = getelementptr inbounds nuw i8, ptr %.tr, i64 32
  %39 = load ptr, ptr %38, align 8, !tbaa !20
  %.not46 = icmp eq ptr %39, null
  br i1 %.not46, label %42, label %40

40:                                               ; preds = %37
  %41 = tail call fastcc i32 @check_called_node_in_look_behind(ptr noundef nonnull %39)
  %.not47 = icmp eq i32 %41, 0
  br i1 %.not47, label %42, label %common.ret14

42:                                               ; preds = %40, %37
  %43 = getelementptr inbounds nuw i8, ptr %.tr, i64 40
  %44 = load ptr, ptr %43, align 8, !tbaa !20
  %.not48 = icmp eq ptr %44, null
  br i1 %.not48, label %common.ret14, label %tailrecurse.backedge

45:                                               ; preds = %tailrecurse
  %46 = getelementptr inbounds nuw i8, ptr %.tr, i64 16
  %47 = load ptr, ptr %46, align 8, !tbaa !20
  %.not45 = icmp eq ptr %47, null
  br i1 %.not45, label %common.ret14, label %tailrecurse.backedge

48:                                               ; preds = %tailrecurse
  %49 = getelementptr inbounds nuw i8, ptr %.tr, i64 4
  %50 = load i32, ptr %49, align 4, !tbaa !20
  %51 = lshr i32 %50, 24
  %.lobit = and i32 %51, 1
  br label %common.ret14
}